; Function Attrs: mustprogress nofree norecurse nosync nounwind willreturn memory(argmem: readwrite) uwtable
define void @_ZN14duckdb_parquet11ColumnOrderC1Ev(ptr noundef nonnull align 8 captures(none) dereferenceable(17) initializes((0, 16)) %0) unnamed_addr #10 align 2 personality ptr @__gxx_personality_v0 {
  store ptr getelementptr inbounds nuw inrange(-48, 40) (i8, ptr @_ZTVN14duckdb_parquet11ColumnOrderE, i64 48), ptr %0, align 8, !tbaa !22
  %2 = getelementptr inbounds nuw i8, ptr %0, i64 8
  store ptr getelementptr inbounds nuw inrange(-48, 40) (i8, ptr @_ZTVN14duckdb_parquet16TypeDefinedOrderE, i64 48), ptr %2, align 8, !tbaa !22
  %3 = getelementptr inbounds nuw i8, ptr %0, i64 16
  %4 = load i8, ptr %3, align 8
  %5 = and i8 %4, -2
  store i8 %5, ptr %3, align 8
  ret void
}